; Function Attrs: mustprogress uwtable
define hidden noundef i64 @_ZNK17opencv_tensorflow20TensorShapeProto_Dim12ByteSizeLongEv(ptr noundef nonnull align 8 dereferenceable(40) %0) unnamed_addr #3 align 2 {
  %2 = getelementptr inbounds nuw i8, ptr %0, i64 16
  %3 = load ptr, ptr %2, align 8, !tbaa !13
  %4 = ptrtoint ptr %3 to i64
  %5 = and i64 %4, -2
  %6 = inttoptr i64 %5 to ptr
  %7 = getelementptr inbounds nuw i8, ptr %6, i64 8
  %8 = load i64, ptr %7, align 8, !tbaa !27
  %9 = icmp eq i64 %8, 0
  br i1 %9, label %21, label %10

10:                                               ; preds = %1
  %11 = trunc i64 %8 to i32
  %12 = or i32 %11, 1
  %13 = tail call range(i32 0, 33) i32 @llvm.ctlz.i32(i32 %12, i1 true)
  %14 = xor i32 %13, 31
  %15 = mul nuw nsw i32 %14, 9
  %16 = add nuw nsw i32 %15, 73
  %17 = lshr i32 %16, 6
  %18 = zext nneg i32 %17 to i64
  %19 = add i64 %8, 1
  %20 = add i64 %19, %18
  br label %21

21:                                               ; preds = %10, %1
  %.0 = phi i64 [ 0, %1 ], [ %20, %10 ]
  %22 = getelementptr inbounds nuw i8, ptr %0, i64 24
  %23 = load i64, ptr %22, align 8, !tbaa !16
  %.not = icmp eq i64 %23, 0
  br i1 %.not, label %32, label %24

24:                                               ; preds = %21
  %25 = or i64 %23, 1
  %26 = tail call range(i64 0, 65) i64 @llvm.ctlz.i64(i64 %25, i1 true)
  %27 = xor i64 %26, 63
  %28 = mul nuw nsw i64 %27, 9
  %29 = add nuw nsw i64 %28, 137
  %30 = lshr i64 %29, 6
  %31 = add i64 %30, %.0
  br label %32

32:                                               ; preds = %24, %21
  %.1 = phi i64 [ %31, %24 ], [ %.0, %21 ]
  %33 = getelementptr inbounds nuw i8, ptr %0, i64 32
  %34 = tail call noundef i64 @_ZNK6google8protobuf7Message29MaybeComputeUnknownFieldsSizeEmPNS0_8internal10CachedSizeE(ptr noundef nonnull align 8 dereferenceable(16) %0, i64 noundef %.1, ptr noundef nonnull %33)
  ret i64 %34
}